target datalayout = "e-m:e-p270:32:32-p271:32:32-p272:64:64-i64:64-i128:128-f80:128-n8:16:32:64-S128"
target triple = "x86_64-pc-linux-gnu"

%"class.__cxxabiv1::__shim_type_info" = type { %"class.std::type_info" }
%"class.std::type_info" = type { ptr, ptr }
%"class.__cxxabiv1::__pbase_type_info" = type { %"class.__cxxabiv1::__shim_type_info", i32, ptr }

@_ZTIN10__cxxabiv116__shim_type_infoE = dso_local constant { ptr, ptr, ptr } { ptr getelementptr inbounds (ptr, ptr @_ZTVN10__cxxabiv120__si_class_type_infoE, i64 2), ptr @_ZTSN10__cxxabiv116__shim_type_infoE, ptr @_ZTISt9type_info }, align 8
@_ZTIN10__cxxabiv119__pointer_type_infoE = dso_local constant { ptr, ptr, ptr } { ptr getelementptr inbounds (ptr, ptr @_ZTVN10__cxxabiv120__si_class_type_infoE, i64 2), ptr @_ZTSN10__cxxabiv119__pointer_type_infoE, ptr @_ZTIN10__cxxabiv117__pbase_type_infoE }, align 8
@_ZTIN10__cxxabiv129__pointer_to_member_type_infoE = dso_local constant { ptr, ptr, ptr } { ptr getelementptr inbounds (ptr, ptr @_ZTVN10__cxxabiv120__si_class_type_infoE, i64 2), ptr @_ZTSN10__cxxabiv129__pointer_to_member_type_infoE, ptr @_ZTIN10__cxxabiv117__pbase_type_infoE }, align 8

; Function Attrs: alwaysinline mustprogress nounwind uwtable
define linkonce_odr hidden noundef ptr @_ZNSt27__type_info_implementations18__string_impl_base21__type_name_to_stringB8ne210000EPKc(ptr noundef %0) #10 comdat align 2 {
  %2 = alloca ptr, align 8
  store ptr %0, ptr %2, align 8, !tbaa !38
  %3 = load ptr, ptr %2, align 8, !tbaa !38
  ret ptr %3
}

; Function Attrs: alwaysinline mustprogress nounwind uwtable
define linkonce_odr hidden noundef zeroext i1 @_ZNSt27__type_info_implementations13__unique_impl4__eqB8ne210000EPKcS2_(ptr noundef %0, ptr noundef %1) #10 comdat align 2 {
  %3 = alloca ptr, align 8
  %4 = alloca ptr, align 8
  store ptr %0, ptr %3, align 8, !tbaa !38
  store ptr %1, ptr %4, align 8, !tbaa !38
  %5 = load ptr, ptr %3, align 8, !tbaa !38
  %6 = load ptr, ptr %4, align 8, !tbaa !38
  %7 = icmp eq ptr %5, %6
  ret i1 %7
}

; Function Attrs: mustprogress nounwind uwtable
define linkonce_odr hidden noundef ptr @_ZNKSt9type_info4nameB8ne210000Ev(ptr noundef nonnull align 8 dereferenceable(16) %0) #1 comdat align 2 {
  %2 = alloca ptr, align 8
  store ptr %0, ptr %2, align 8, !tbaa !31
  %3 = load ptr, ptr %2, align 8
  %4 = getelementptr inbounds nuw %"class.std::type_info", ptr %3, i32 0, i32 1
  %5 = load ptr, ptr %4, align 8, !tbaa !81
  %6 = call noundef ptr @_ZNSt27__type_info_implementations18__string_impl_base21__type_name_to_stringB8ne210000EPKc(ptr noundef %5) #11
  ret ptr %6
}

; Function Attrs: mustprogress nounwind uwtable
define linkonce_odr hidden noundef zeroext i1 @_ZNKSt9type_infoeqB8ne210000ERKS_(ptr noundef nonnull align 8 dereferenceable(16) %0, ptr noundef nonnull align 8 dereferenceable(16) %1) #1 comdat align 2 {
  %3 = alloca ptr, align 8
  %4 = alloca ptr, align 8
  store ptr %0, ptr %3, align 8, !tbaa !31
  store ptr %1, ptr %4, align 8, !tbaa !31
  %5 = load ptr, ptr %3, align 8
  %6 = getelementptr inbounds nuw %"class.std::type_info", ptr %5, i32 0, i32 1
  %7 = load ptr, ptr %6, align 8, !tbaa !81
  %8 = load ptr, ptr %4, align 8, !tbaa !31
  %9 = getelementptr inbounds nuw %"class.std::type_info", ptr %8, i32 0, i32 1
  %10 = load ptr, ptr %9, align 8, !tbaa !81
  %11 = call noundef zeroext i1 @_ZNSt27__type_info_implementations13__unique_impl4__eqB8ne210000EPKcS2_(ptr noundef %7, ptr noundef %10) #11
  ret i1 %11
}

; Function Attrs: inlinehint mustprogress nounwind uwtable
define internal noundef zeroext i1 @_ZL8is_equalPKSt9type_infoS1_b(ptr noundef %0, ptr noundef %1, i1 noundef zeroext %2) #5 {
  %4 = alloca i1, align 1
  %5 = alloca ptr, align 8
  %6 = alloca ptr, align 8
  %7 = alloca i8, align 1
  store ptr %0, ptr %5, align 8, !tbaa !31
  store ptr %1, ptr %6, align 8, !tbaa !31
  %8 = zext i1 %2 to i8
  store i8 %8, ptr %7, align 1, !tbaa !33
  %9 = load i8, ptr %7, align 1, !tbaa !33, !range !35, !noundef !36
  %10 = trunc i8 %9 to i1
  br i1 %10, label %15, label %11

11:                                               ; preds = %3
  %12 = load ptr, ptr %5, align 8, !tbaa !31
  %13 = load ptr, ptr %6, align 8, !tbaa !31
  %14 = call noundef zeroext i1 @_ZNKSt9type_infoeqB8ne210000ERKS_(ptr noundef nonnull align 8 dereferenceable(16) %12, ptr noundef nonnull align 8 dereferenceable(16) %13) #11
  store i1 %14, ptr %4, align 1
  br label %28

15:                                               ; preds = %3
  %16 = load ptr, ptr %5, align 8, !tbaa !31
  %17 = load ptr, ptr %6, align 8, !tbaa !31
  %18 = icmp eq ptr %16, %17
  br i1 %18, label %26, label %19

19:                                               ; preds = %15
  %20 = load ptr, ptr %5, align 8, !tbaa !31
  %21 = call noundef ptr @_ZNKSt9type_info4nameB8ne210000Ev(ptr noundef nonnull align 8 dereferenceable(16) %20) #11
  %22 = load ptr, ptr %6, align 8, !tbaa !31
  %23 = call noundef ptr @_ZNKSt9type_info4nameB8ne210000Ev(ptr noundef nonnull align 8 dereferenceable(16) %22) #11
  %24 = call i32 @strcmp(ptr noundef %21, ptr noundef %23) #14
  %25 = icmp eq i32 %24, 0
  br label %26

26:                                               ; preds = %19, %15
  %27 = phi i1 [ true, %15 ], [ %25, %19 ]
  store i1 %27, ptr %4, align 1
  br label %28

28:                                               ; preds = %26, %11
  %29 = load i1, ptr %4, align 1
  ret i1 %29
}

; Function Attrs: mustprogress uwtable
define hidden noundef zeroext i1 @_ZNK10__cxxabiv119__pointer_type_info16can_catch_nestedEPKNS_16__shim_type_infoE(ptr noundef nonnull align 8 dereferenceable(32) %0, ptr noundef %1) #4 align 2 {
  %3 = alloca i1, align 1
  %4 = alloca ptr, align 8
  %5 = alloca ptr, align 8
  %6 = alloca ptr, align 8
  %7 = alloca i32, align 4
  %8 = alloca ptr, align 8
  %9 = alloca ptr, align 8
  store ptr %0, ptr %4, align 8, !tbaa !25
  store ptr %1, ptr %5, align 8, !tbaa !4
  %10 = load ptr, ptr %4, align 8
  call void @llvm.lifetime.start.p0(i64 8, ptr %6) #11
  %11 = load ptr, ptr %5, align 8, !tbaa !4
  %12 = icmp eq ptr %11, null
  br i1 %12, label %15, label %13

13:                                               ; preds = %2
  %14 = call ptr @__dynamic_cast(ptr %11, ptr @_ZTIN10__cxxabiv116__shim_type_infoE, ptr @_ZTIN10__cxxabiv119__pointer_type_infoE, i64 0) #11
  br label %16

15:                                               ; preds = %2
  br label %16

16:                                               ; preds = %15, %13
  %17 = phi ptr [ %14, %13 ], [ null, %15 ]
  store ptr %17, ptr %6, align 8, !tbaa !25
  %18 = load ptr, ptr %6, align 8, !tbaa !25
  %19 = icmp eq ptr %18, null
  br i1 %19, label %20, label %21

20:                                               ; preds = %16
  store i1 false, ptr %3, align 1
  store i32 1, ptr %7, align 4
  br label %83

21:                                               ; preds = %16
  %22 = load ptr, ptr %6, align 8, !tbaa !25
  %23 = getelementptr inbounds nuw %"class.__cxxabiv1::__pbase_type_info", ptr %22, i32 0, i32 1
  %24 = load i32, ptr %23, align 8, !tbaa !86
  %25 = getelementptr inbounds nuw %"class.__cxxabiv1::__pbase_type_info", ptr %10, i32 0, i32 1
  %26 = load i32, ptr %25, align 8, !tbaa !86
  %27 = xor i32 %26, -1
  %28 = and i32 %24, %27
  %29 = icmp ne i32 %28, 0
  br i1 %29, label %30, label %31

30:                                               ; preds = %21
  store i1 false, ptr %3, align 1
  store i32 1, ptr %7, align 4
  br label %83

31:                                               ; preds = %21
  %32 = getelementptr inbounds nuw %"class.__cxxabiv1::__pbase_type_info", ptr %10, i32 0, i32 2
  %33 = load ptr, ptr %32, align 8, !tbaa !88
  %34 = load ptr, ptr %6, align 8, !tbaa !25
  %35 = getelementptr inbounds nuw %"class.__cxxabiv1::__pbase_type_info", ptr %34, i32 0, i32 2
  %36 = load ptr, ptr %35, align 8, !tbaa !88
  %37 = call noundef zeroext i1 @_ZL8is_equalPKSt9type_infoS1_b(ptr noundef %33, ptr noundef %36, i1 noundef zeroext false)
  br i1 %37, label %38, label %39

38:                                               ; preds = %31
  store i1 true, ptr %3, align 1
  store i32 1, ptr %7, align 4
  br label %83

39:                                               ; preds = %31
  %40 = getelementptr inbounds nuw %"class.__cxxabiv1::__pbase_type_info", ptr %10, i32 0, i32 1
  %41 = load i32, ptr %40, align 8, !tbaa !86
  %42 = xor i32 %41, -1
  %43 = and i32 %42, 1
  %44 = icmp ne i32 %43, 0
  br i1 %44, label %45, label %46

45:                                               ; preds = %39
  store i1 false, ptr %3, align 1
  store i32 1, ptr %7, align 4
  br label %83

46:                                               ; preds = %39
  call void @llvm.lifetime.start.p0(i64 8, ptr %8) #11
  %47 = getelementptr inbounds nuw %"class.__cxxabiv1::__pbase_type_info", ptr %10, i32 0, i32 2
  %48 = load ptr, ptr %47, align 8, !tbaa !88
  %49 = icmp eq ptr %48, null
  br i1 %49, label %52, label %50

50:                                               ; preds = %46
  %51 = call ptr @__dynamic_cast(ptr %48, ptr @_ZTIN10__cxxabiv116__shim_type_infoE, ptr @_ZTIN10__cxxabiv119__pointer_type_infoE, i64 0) #11
  br label %53

52:                                               ; preds = %46
  br label %53

53:                                               ; preds = %52, %50
  %54 = phi ptr [ %51, %50 ], [ null, %52 ]
  store ptr %54, ptr %8, align 8, !tbaa !25
  %55 = load ptr, ptr %8, align 8, !tbaa !25
  %56 = icmp ne ptr %55, null
  br i1 %56, label %57, label %63

57:                                               ; preds = %53
  %58 = load ptr, ptr %8, align 8, !tbaa !25
  %59 = load ptr, ptr %6, align 8, !tbaa !25
  %60 = getelementptr inbounds nuw %"class.__cxxabiv1::__pbase_type_info", ptr %59, i32 0, i32 2
  %61 = load ptr, ptr %60, align 8, !tbaa !88
  %62 = call noundef zeroext i1 @_ZNK10__cxxabiv119__pointer_type_info16can_catch_nestedEPKNS_16__shim_type_infoE(ptr noundef nonnull align 8 dereferenceable(32) %58, ptr noundef %61)
  store i1 %62, ptr %3, align 1
  store i32 1, ptr %7, align 4
  br label %82

63:                                               ; preds = %53
  call void @llvm.lifetime.start.p0(i64 8, ptr %9) #11
  %64 = getelementptr inbounds nuw %"class.__cxxabiv1::__pbase_type_info", ptr %10, i32 0, i32 2
  %65 = load ptr, ptr %64, align 8, !tbaa !88
  %66 = icmp eq ptr %65, null
  br i1 %66, label %69, label %67

67:                                               ; preds = %63
  %68 = call ptr @__dynamic_cast(ptr %65, ptr @_ZTIN10__cxxabiv116__shim_type_infoE, ptr @_ZTIN10__cxxabiv129__pointer_to_member_type_infoE, i64 0) #11
  br label %70

69:                                               ; preds = %63
  br label %70

70:                                               ; preds = %69, %67
  %71 = phi ptr [ %68, %67 ], [ null, %69 ]
  store ptr %71, ptr %9, align 8, !tbaa !27
  %72 = load ptr, ptr %9, align 8, !tbaa !27
  %73 = icmp ne ptr %72, null
  br i1 %73, label %74, label %80

74:                                               ; preds = %70
  %75 = load ptr, ptr %9, align 8, !tbaa !27
  %76 = load ptr, ptr %6, align 8, !tbaa !25
  %77 = getelementptr inbounds nuw %"class.__cxxabiv1::__pbase_type_info", ptr %76, i32 0, i32 2
  %78 = load ptr, ptr %77, align 8, !tbaa !88
  %79 = call noundef zeroext i1 @_ZNK10__cxxabiv129__pointer_to_member_type_info16can_catch_nestedEPKNS_16__shim_type_infoE(ptr noundef nonnull align 8 dereferenceable(40) %75, ptr noundef %78)
  store i1 %79, ptr %3, align 1
  store i32 1, ptr %7, align 4
  br label %81

80:                                               ; preds = %70
  store i1 false, ptr %3, align 1
  store i32 1, ptr %7, align 4
  br label %81

81:                                               ; preds = %80, %74
  call void @llvm.lifetime.end.p0(i64 8, ptr %9) #11
  br label %82

82:                                               ; preds = %81, %57
  call void @llvm.lifetime.end.p0(i64 8, ptr %8) #11
  br label %83

83:                                               ; preds = %82, %45, %38, %30, %20
  call void @llvm.lifetime.end.p0(i64 8, ptr %6) #11
  %84 = load i1, ptr %3, align 1
  ret i1 %84
}