; Function Attrs: mustprogress nofree nounwind willreturn memory(read) uwtable
define hidden noundef zeroext i1 @_ZNK10__cxxabiv119__pointer_type_info16can_catch_nestedEPKNS_16__shim_type_infoE(ptr noundef nonnull readonly align 8 captures(none) dereferenceable(32) %0, ptr noundef readonly %1) local_unnamed_addr #13 align 2 {
  br label %tailrecurse

tailrecurse:                                      ; preds = %26, %2
  %.tr = phi ptr [ %0, %2 ], [ %27, %26 ]
  %.tr21 = phi ptr [ %1, %2 ], [ %18, %26 ]
  %3 = icmp eq ptr %.tr21, null
  br i1 %3, label %.thread, label %4

4:                                                ; preds = %tailrecurse
  %5 = tail call ptr @__dynamic_cast(ptr nonnull %.tr21, ptr nonnull @_ZTIN10__cxxabiv116__shim_type_infoE, ptr nonnull @_ZTIN10__cxxabiv119__pointer_type_infoE, i64 0) #18
  %6 = icmp eq ptr %5, null
  br i1 %6, label %.thread, label %7

7:                                                ; preds = %4
  %8 = getelementptr inbounds nuw i8, ptr %5, i64 16
  %9 = load i32, ptr %8, align 8, !tbaa !50
  %10 = getelementptr inbounds nuw i8, ptr %.tr, i64 16
  %11 = load i32, ptr %10, align 8, !tbaa !50
  %12 = xor i32 %11, -1
  %13 = and i32 %9, %12
  %.not = icmp eq i32 %13, 0
  br i1 %.not, label %14, label %.thread

14:                                               ; preds = %7
  %15 = getelementptr inbounds nuw i8, ptr %.tr, i64 24
  %16 = load ptr, ptr %15, align 8, !tbaa !53
  %17 = getelementptr inbounds nuw i8, ptr %5, i64 24
  %18 = load ptr, ptr %17, align 8, !tbaa !53
  %19 = getelementptr inbounds nuw i8, ptr %16, i64 8
  %20 = load ptr, ptr %19, align 8, !tbaa !4
  %21 = getelementptr inbounds nuw i8, ptr %18, i64 8
  %22 = load ptr, ptr %21, align 8, !tbaa !4
  %23 = icmp eq ptr %20, %22
  br i1 %23, label %.thread, label %24

24:                                               ; preds = %14
  %25 = and i32 %11, 1
  %.not18.not = icmp eq i32 %25, 0
  br i1 %.not18.not, label %.thread, label %26

26:                                               ; preds = %24
  %27 = tail call ptr @__dynamic_cast(ptr nonnull %16, ptr nonnull @_ZTIN10__cxxabiv116__shim_type_infoE, ptr nonnull @_ZTIN10__cxxabiv119__pointer_type_infoE, i64 0) #18
  %.not19 = icmp eq ptr %27, null
  br i1 %.not19, label %28, label %tailrecurse

28:                                               ; preds = %26
  %29 = tail call ptr @__dynamic_cast(ptr nonnull %16, ptr nonnull @_ZTIN10__cxxabiv116__shim_type_infoE, ptr nonnull @_ZTIN10__cxxabiv129__pointer_to_member_type_infoE, i64 0) #18
  %.not20 = icmp eq ptr %29, null
  br i1 %.not20, label %.thread, label %30

30:                                               ; preds = %28
  %31 = tail call noundef zeroext i1 @_ZNK10__cxxabiv129__pointer_to_member_type_info16can_catch_nestedEPKNS_16__shim_type_infoE(ptr noundef nonnull align 8 dereferenceable(40) %29, ptr noundef nonnull %18)
  br label %.thread

.thread:                                          ; preds = %tailrecurse, %24, %14, %7, %4, %28, %30
  %.0 = phi i1 [ %31, %30 ], [ false, %28 ], [ false, %tailrecurse ], [ false, %24 ], [ true, %14 ], [ false, %7 ], [ false, %4 ]
  ret i1 %.0
}